; Function Attrs: mustprogress uwtable
define internal void @_ZN7testing12_GLOBAL__N_141ConstructorTrackerTest_CreatedBefore_Test8TestBodyEv(ptr nocapture nonnull readnone align 8 %this) unnamed_addr #3 align 2 personality ptr @__gxx_personality_v0 {
entry:
  %a = alloca %"struct.testing::(anonymous namespace)::Tracked", align 1
  %b = alloca %"struct.testing::(anonymous namespace)::Tracked", align 1
  %c = alloca %"struct.testing::(anonymous namespace)::Tracked", align 1
  %ct = alloca %"class.testing::exceptions_internal::ConstructorTracker", align 8
  call fastcc void @_ZN7testing12_GLOBAL__N_17TrackedC2Ev(ptr noundef nonnull align 1 dereferenceable(1) %a)
  invoke fastcc void @_ZN7testing12_GLOBAL__N_17TrackedC2Ev(ptr noundef nonnull align 1 dereferenceable(1) %b)
          to label %invoke.cont unwind label %lpad

invoke.cont:                                      ; preds = %entry
  invoke fastcc void @_ZN7testing12_GLOBAL__N_17TrackedC2Ev(ptr noundef nonnull align 1 dereferenceable(1) %c)
          to label %invoke.cont3 unwind label %lpad2

invoke.cont3:                                     ; preds = %invoke.cont
  %0 = load i32, ptr @_ZN7testing19exceptions_internal9countdownE, align 4
  %_M_single_bucket.i.i.i = getelementptr inbounds i8, ptr %ct, i64 48
  store ptr %_M_single_bucket.i.i.i, ptr %ct, align 8
  %_M_bucket_count.i.i.i = getelementptr inbounds i8, ptr %ct, i64 8
  store i64 1, ptr %_M_bucket_count.i.i.i, align 8
  %_M_before_begin.i.i.i = getelementptr inbounds i8, ptr %ct, i64 16
  %_M_rehash_policy.i.i.i = getelementptr inbounds i8, ptr %ct, i64 32
  call void @llvm.memset.p0.i64(ptr noundef nonnull align 8 dereferenceable(16) %_M_before_begin.i.i.i, i8 0, i64 16, i1 false)
  store float 1.000000e+00, ptr %_M_rehash_policy.i.i.i, align 8
  %_M_next_resize.i.i.i.i = getelementptr inbounds i8, ptr %ct, i64 40
  call void @llvm.memset.p0.i64(ptr noundef nonnull align 8 dereferenceable(16) %_M_next_resize.i.i.i.i, i8 0, i64 16, i1 false)
  %countdown_.i = getelementptr inbounds i8, ptr %ct, i64 56
  store i32 %0, ptr %countdown_.i, align 8
  store ptr %ct, ptr @_ZN7testing19exceptions_internal18ConstructorTracker25current_tracker_instance_E, align 8
  call void @_ZN7testing19exceptions_internal18ConstructorTrackerD2Ev(ptr noundef nonnull align 8 dereferenceable(60) %ct) #23
  invoke void @_ZN7testing19exceptions_internal18ConstructorTracker16ObjectDestructedEPv(ptr noundef nonnull %c)
          to label %_ZN7testing12_GLOBAL__N_17TrackedD2Ev.exit unwind label %terminate.lpad.i.i

terminate.lpad.i.i:                               ; preds = %invoke.cont3
  %1 = landingpad { ptr, i32 }
          catch ptr null
  %2 = extractvalue { ptr, i32 } %1, 0
  call void @__clang_call_terminate(ptr %2) #26
  unreachable

_ZN7testing12_GLOBAL__N_17TrackedD2Ev.exit:       ; preds = %invoke.cont3
  invoke void @_ZN7testing19exceptions_internal18ConstructorTracker16ObjectDestructedEPv(ptr noundef nonnull %b)
          to label %_ZN7testing12_GLOBAL__N_17TrackedD2Ev.exit3 unwind label %terminate.lpad.i.i2

terminate.lpad.i.i2:                              ; preds = %_ZN7testing12_GLOBAL__N_17TrackedD2Ev.exit
  %3 = landingpad { ptr, i32 }
          catch ptr null
  %4 = extractvalue { ptr, i32 } %3, 0
  call void @__clang_call_terminate(ptr %4) #26
  unreachable

_ZN7testing12_GLOBAL__N_17TrackedD2Ev.exit3:      ; preds = %_ZN7testing12_GLOBAL__N_17TrackedD2Ev.exit
  invoke void @_ZN7testing19exceptions_internal18ConstructorTracker16ObjectDestructedEPv(ptr noundef nonnull %a)
          to label %_ZN7testing12_GLOBAL__N_17TrackedD2Ev.exit5 unwind label %terminate.lpad.i.i4

terminate.lpad.i.i4:                              ; preds = %_ZN7testing12_GLOBAL__N_17TrackedD2Ev.exit3
  %5 = landingpad { ptr, i32 }
          catch ptr null
  %6 = extractvalue { ptr, i32 } %5, 0
  call void @__clang_call_terminate(ptr %6) #26
  unreachable

_ZN7testing12_GLOBAL__N_17TrackedD2Ev.exit5:      ; preds = %_ZN7testing12_GLOBAL__N_17TrackedD2Ev.exit3
  ret void

lpad:                                             ; preds = %entry
  %7 = landingpad { ptr, i32 }
          cleanup
  br label %ehcleanup6

lpad2:                                            ; preds = %invoke.cont
  %8 = landingpad { ptr, i32 }
          cleanup
  invoke void @_ZN7testing19exceptions_internal18ConstructorTracker16ObjectDestructedEPv(ptr noundef nonnull %b)
          to label %ehcleanup6 unwind label %terminate.lpad.i.i6

terminate.lpad.i.i6:                              ; preds = %lpad2
  %9 = landingpad { ptr, i32 }
          catch ptr null
  %10 = extractvalue { ptr, i32 } %9, 0
  call void @__clang_call_terminate(ptr %10) #26
  unreachable

ehcleanup6:                                       ; preds = %lpad2, %lpad
  %.pn = phi { ptr, i32 } [ %7, %lpad ], [ %8, %lpad2 ]
  invoke void @_ZN7testing19exceptions_internal18ConstructorTracker16ObjectDestructedEPv(ptr noundef nonnull %a)
          to label %_ZN7testing12_GLOBAL__N_17TrackedD2Ev.exit9 unwind label %terminate.lpad.i.i8

terminate.lpad.i.i8:                              ; preds = %ehcleanup6
  %11 = landingpad { ptr, i32 }
          catch ptr null
  %12 = extractvalue { ptr, i32 } %11, 0
  call void @__clang_call_terminate(ptr %12) #26
  unreachable

_ZN7testing12_GLOBAL__N_17TrackedD2Ev.exit9:      ; preds = %ehcleanup6
  resume { ptr, i32 } %.pn
}